; Function Attrs: mustprogress uwtable
define noundef i32 @udatpg_getBaseSkeleton_77(ptr noundef readnone captures(none) %0, ptr noundef %1, i32 noundef %2, ptr noundef %3, i32 noundef %4, ptr noundef %5) local_unnamed_addr #0 personality ptr @__gxx_personality_v0 {
  %7 = alloca %"class.icu_77::UnicodeString", align 8
  %8 = alloca %"class.icu_77::ConstChar16Ptr", align 8
  %9 = alloca %"class.icu_77::UnicodeString", align 8
  %10 = alloca %"class.icu_77::Char16Ptr", align 8
  %11 = load i32, ptr %5, align 4, !tbaa !6
  %12 = icmp slt i32 %11, 1
  br i1 %12, label %13, label %35

13:                                               ; preds = %6
  %14 = icmp eq ptr %1, null
  %15 = icmp ne i32 %2, 0
  %or.cond = and i1 %14, %15
  br i1 %or.cond, label %16, label %17

16:                                               ; preds = %13
  store i32 1, ptr %5, align 4, !tbaa !6
  br label %35

17:                                               ; preds = %13
  call void @llvm.lifetime.start.p0(i64 64, ptr nonnull %7) #5
  %.lobit = lshr i32 %2, 31
  %18 = trunc nuw nsw i32 %.lobit to i8
  store ptr %1, ptr %8, align 8, !tbaa !9
  invoke void @_ZN6icu_7713UnicodeStringC1EaNS_14ConstChar16PtrEi(ptr noundef nonnull align 8 dereferenceable(64) %7, i8 noundef signext %18, ptr noundef nonnull %8, i32 noundef %2)
          to label %19 unwind label %25

19:                                               ; preds = %17
  %20 = load ptr, ptr %8, align 8, !tbaa !9
  call void asm sideeffect "", "rm,~{memory},~{dirflag},~{fpsr},~{flags}"(ptr %20) #5, !srcloc !13
  call void @llvm.lifetime.start.p0(i64 64, ptr nonnull %9) #5
  invoke void @_ZN6icu_7724DateTimePatternGenerator21staticGetBaseSkeletonERKNS_13UnicodeStringER10UErrorCode(ptr dead_on_unwind nonnull writable sret(%"class.icu_77::UnicodeString") align 8 %9, ptr noundef nonnull align 8 dereferenceable(64) %7, ptr noundef nonnull align 4 dereferenceable(4) %5)
          to label %21 unwind label %28

21:                                               ; preds = %19
  store ptr %3, ptr %10, align 8, !tbaa !14
  %22 = invoke noundef i32 @_ZNK6icu_7713UnicodeString7extractENS_9Char16PtrEiR10UErrorCode(ptr noundef nonnull align 8 dereferenceable(64) %9, ptr noundef nonnull %10, i32 noundef %4, ptr noundef nonnull align 4 dereferenceable(4) %5)
          to label %23 unwind label %30

23:                                               ; preds = %21
  %24 = load ptr, ptr %10, align 8, !tbaa !14
  call void asm sideeffect "", "rm,~{memory},~{dirflag},~{fpsr},~{flags}"(ptr %24) #5, !srcloc !16
  call void @_ZN6icu_7713UnicodeStringD1Ev(ptr noundef nonnull align 8 dereferenceable(64) %9) #5
  call void @llvm.lifetime.end.p0(i64 64, ptr nonnull %9) #5
  call void @_ZN6icu_7713UnicodeStringD1Ev(ptr noundef nonnull align 8 dereferenceable(64) %7) #5
  call void @llvm.lifetime.end.p0(i64 64, ptr nonnull %7) #5
  br label %35

25:                                               ; preds = %17
  %26 = landingpad { ptr, i32 }
          cleanup
  %27 = load ptr, ptr %8, align 8, !tbaa !9
  call void asm sideeffect "", "rm,~{memory},~{dirflag},~{fpsr},~{flags}"(ptr %27) #5, !srcloc !13
  br label %34

28:                                               ; preds = %19
  %29 = landingpad { ptr, i32 }
          cleanup
  br label %33

30:                                               ; preds = %21
  %31 = landingpad { ptr, i32 }
          cleanup
  %32 = load ptr, ptr %10, align 8, !tbaa !14
  call void asm sideeffect "", "rm,~{memory},~{dirflag},~{fpsr},~{flags}"(ptr %32) #5, !srcloc !16
  call void @_ZN6icu_7713UnicodeStringD1Ev(ptr noundef nonnull align 8 dereferenceable(64) %9) #5
  br label %33

33:                                               ; preds = %30, %28
  %.pn = phi { ptr, i32 } [ %31, %30 ], [ %29, %28 ]
  call void @llvm.lifetime.end.p0(i64 64, ptr nonnull %9) #5
  call void @_ZN6icu_7713UnicodeStringD1Ev(ptr noundef nonnull align 8 dereferenceable(64) %7) #5
  br label %34

34:                                               ; preds = %33, %25
  %.pn.pn = phi { ptr, i32 } [ %.pn, %33 ], [ %26, %25 ]
  call void @llvm.lifetime.end.p0(i64 64, ptr nonnull %7) #5
  resume { ptr, i32 } %.pn.pn

35:                                               ; preds = %6, %23, %16
  %.016 = phi i32 [ 0, %16 ], [ %22, %23 ], [ 0, %6 ]
  ret i32 %.016
}